; Function Attrs: mustprogress nounwind uwtable
define hidden void @_ZN25G1CollectionSetCandidates28add_retained_region_unsortedEP12G1HeapRegion(ptr noundef nonnull align 8 dereferenceable(72) %0, ptr noundef nonnull %1) local_unnamed_addr #0 align 2 {
  %3 = getelementptr inbounds i8, ptr %0, i64 56
  %4 = load ptr, ptr %3, align 8
  %5 = getelementptr inbounds i8, ptr %1, i64 48
  %6 = load i32, ptr %5, align 8
  %7 = zext i32 %6 to i64
  %8 = getelementptr inbounds i8, ptr %4, i64 %7
  store i8 2, ptr %8, align 1
  %9 = getelementptr inbounds i8, ptr %0, i64 32
  %10 = tail call noundef double @_ZN12G1HeapRegion18calc_gc_efficiencyEv(ptr noundef nonnull align 8 dereferenceable(136) %1) #17
  %11 = load i32, ptr %9, align 8
  %12 = getelementptr inbounds i8, ptr %0, i64 36
  %13 = load i32, ptr %12, align 4
  %14 = icmp eq i32 %11, %13
  br i1 %14, label %15, label %_ZN25G1CollectionCandidateList15append_unsortedEP12G1HeapRegion.exit

15:                                               ; preds = %2
  %16 = add nsw i32 %11, 1
  %17 = icmp sgt i32 %11, -1
  %18 = xor i32 %11, -2147483648
  %19 = and i32 %18, %16
  %20 = icmp eq i32 %19, 0
  %21 = and i1 %17, %20
  %22 = tail call range(i32 0, 33) i32 @llvm.ctlz.i32(i32 %16, i1 true)
  %23 = sub nuw nsw i32 32, %22
  %24 = shl nuw i32 1, %23
  %.0.i.i.i.i.i = select i1 %21, i32 %16, i32 %24
  tail call void @_ZN26GrowableArrayWithAllocatorI28G1CollectionSetCandidateInfo13GrowableArrayIS0_EE9expand_toEi(ptr noundef nonnull align 8 dereferenceable(16) %9, i32 noundef %.0.i.i.i.i.i)
  %.pre.i.i = load i32, ptr %9, align 8
  br label %_ZN25G1CollectionCandidateList15append_unsortedEP12G1HeapRegion.exit

_ZN25G1CollectionCandidateList15append_unsortedEP12G1HeapRegion.exit: ; preds = %2, %15
  %25 = phi i32 [ %.pre.i.i, %15 ], [ %11, %2 ]
  %26 = add nsw i32 %25, 1
  store i32 %26, ptr %9, align 8
  %27 = getelementptr inbounds i8, ptr %0, i64 40
  %28 = load ptr, ptr %27, align 8
  %29 = sext i32 %25 to i64
  %30 = getelementptr inbounds %struct.G1CollectionSetCandidateInfo, ptr %28, i64 %29
  store ptr %1, ptr %30, align 8
  %.sroa.2.0..sroa_idx.i = getelementptr inbounds i8, ptr %30, i64 8
  store double %10, ptr %.sroa.2.0..sroa_idx.i, align 8
  %.sroa.3.0..sroa_idx.i = getelementptr inbounds i8, ptr %30, i64 16
  store i32 0, ptr %.sroa.3.0..sroa_idx.i, align 8
  ret void
}